target datalayout = "e-m:e-p270:32:32-p271:32:32-p272:64:64-i64:64-i128:128-f80:128-n8:16:32:64-S128"
target triple = "x86_64-pc-linux-gnu"

%class.QString = type { %struct.QArrayDataPointer }
%struct.QArrayDataPointer = type { ptr, ptr, i64 }
%struct._address = type { i32, i32, ptr, ptr }
%class.Iax2AnalysisDialog = type { %class.WiresharkDialog.base, ptr, %struct._rtpstream_id, %struct._rtpstream_id, %struct._tap_iax2_stat_t, %struct._tap_iax2_stat_t, ptr, ptr, %class.QList.1, %class.QList.5, %class.QList.5, %class.QList.5, %class.QList.5, %class.QList.5, %class.QList.5, %class.QString, i32, %class.QMenu, %class.QMenu }
%class.WiresharkDialog.base = type <{ %class.GeometryStateDialog, ptr, i8, [7 x i8], %class.QString, %class.QList, i32, i8 }>
%class.GeometryStateDialog = type { %class.QDialog, %class.QString, ptr }
%class.QDialog = type { %class.QWidget }
%class.QWidget = type { %class.QObject, %class.QPaintDevice.base, ptr }
%class.QObject = type { ptr, %class.QScopedPointer }
%class.QScopedPointer = type { ptr }
%class.QPaintDevice.base = type <{ ptr, i16 }>
%class.QList = type { %struct.QArrayDataPointer.0 }
%struct.QArrayDataPointer.0 = type { ptr, ptr, i64 }
%struct._rtpstream_id = type { %struct._address, i16, %struct._address, i16, i32 }
%struct._tap_iax2_stat_t = type { i8, i32, i16, i32, i32, double, [300 x %struct._iax2_bw_history_item], i16, i16, i32, double, double, double, double, double, double, double, double, i32, i16, i16, i32, i32, i8, i32, i16, i32 }
%struct._iax2_bw_history_item = type { double, i32 }
%class.QList.1 = type { %struct.QArrayDataPointer.4 }
%struct.QArrayDataPointer.4 = type { ptr, ptr, i64 }
%class.QList.5 = type { %struct.QArrayDataPointer.8 }
%struct.QArrayDataPointer.8 = type { ptr, ptr, i64 }
%class.QMenu = type { %class.QWidget }
%class.Ui_Iax2AnalysisDialog = type { ptr, ptr, ptr, ptr, ptr, ptr, ptr, ptr, ptr, ptr, ptr, ptr, ptr, ptr, ptr, ptr, ptr, ptr, ptr, ptr, ptr, ptr, ptr, ptr, ptr, ptr, ptr, ptr, ptr, ptr, ptr, ptr, ptr, ptr }
%class.QPointer = type { %class.QWeakPointer }
%class.QWeakPointer = type { ptr, ptr }
%class.QCPLayerable = type <{ %class.QObject, i8, [7 x i8], ptr, %class.QPointer, ptr, i8, [7 x i8] }>

; Function Attrs: mustprogress nounwind null_pointer_is_valid sspstrong uwtable
define linkonce_odr noundef zeroext i1 @_ZNK12QCPLayerable7visibleEv(ptr noundef align 8 dereferenceable_or_null(57) %0) #3 comdat align 2 {
  %2 = alloca ptr, align 8
  store ptr %0, ptr %2, align 8
  %3 = load ptr, ptr %2, align 8
  %4 = getelementptr inbounds nuw %class.QCPLayerable, ptr %3, i32 0, i32 1
  %5 = load i8, ptr %4, align 8, !range !11, !noundef !12
  %6 = trunc i8 %5 to i1
  ret i1 %6
}

; Function Attrs: mustprogress null_pointer_is_valid sspstrong uwtable
define void @_ZN18Iax2AnalysisDialog11updateGraphEv(ptr noundef align 8 dereferenceable_or_null(10448) %0) #0 align 2 {
  %2 = alloca ptr, align 8
  %3 = alloca i32, align 4
  store ptr %0, ptr %2, align 8
  %4 = load ptr, ptr %2, align 8
  call void @llvm.lifetime.start.p0(i64 4, ptr %3) #24
  store i32 0, ptr %3, align 4
  br label %5

5:                                                ; preds = %32, %1
  %6 = load i32, ptr %3, align 4
  %7 = getelementptr inbounds nuw %class.Iax2AnalysisDialog, ptr %4, i32 0, i32 1
  %8 = load ptr, ptr %7, align 8
  %9 = getelementptr inbounds nuw %class.Ui_Iax2AnalysisDialog, ptr %8, i32 0, i32 19
  %10 = load ptr, ptr %9, align 8
  %11 = call noundef i32 @_ZNK11QCustomPlot10graphCountEv(ptr noundef align 8 dereferenceable_or_null(513) %10)
  %12 = icmp slt i32 %6, %11
  br i1 %12, label %14, label %13

13:                                               ; preds = %5
  call void @llvm.lifetime.end.p0(i64 4, ptr %3) #24
  br label %35

14:                                               ; preds = %5
  %15 = getelementptr inbounds nuw %class.Iax2AnalysisDialog, ptr %4, i32 0, i32 1
  %16 = load ptr, ptr %15, align 8
  %17 = getelementptr inbounds nuw %class.Ui_Iax2AnalysisDialog, ptr %16, i32 0, i32 19
  %18 = load ptr, ptr %17, align 8
  %19 = load i32, ptr %3, align 4
  %20 = call noundef ptr @_ZNK11QCustomPlot5graphEi(ptr noundef align 8 dereferenceable_or_null(513) %18, i32 noundef %19)
  %21 = call noundef zeroext i1 @_ZNK12QCPLayerable7visibleEv(ptr noundef align 8 dereferenceable_or_null(57) %20)
  br i1 %21, label %22, label %31

22:                                               ; preds = %14
  %23 = getelementptr inbounds nuw %class.Iax2AnalysisDialog, ptr %4, i32 0, i32 1
  %24 = load ptr, ptr %23, align 8
  %25 = getelementptr inbounds nuw %class.Ui_Iax2AnalysisDialog, ptr %24, i32 0, i32 19
  %26 = load ptr, ptr %25, align 8
  %27 = load i32, ptr %3, align 4
  %28 = call noundef ptr @_ZNK11QCustomPlot5graphEi(ptr noundef align 8 dereferenceable_or_null(513) %26, i32 noundef %27)
  %29 = load i32, ptr %3, align 4
  %30 = icmp sgt i32 %29, 0
  call void @_ZNK20QCPAbstractPlottable11rescaleAxesEb(ptr noundef align 8 dereferenceable_or_null(184) %28, i1 noundef zeroext %30)
  br label %31

31:                                               ; preds = %22, %14
  br label %32

32:                                               ; preds = %31
  %33 = load i32, ptr %3, align 4
  %34 = add i32 %33, 1
  store i32 %34, ptr %3, align 4
  br label %5, !llvm.loop !14

35:                                               ; preds = %13
  %36 = getelementptr inbounds nuw %class.Iax2AnalysisDialog, ptr %4, i32 0, i32 1
  %37 = load ptr, ptr %36, align 8
  %38 = getelementptr inbounds nuw %class.Ui_Iax2AnalysisDialog, ptr %37, i32 0, i32 19
  %39 = load ptr, ptr %38, align 8
  call void @_ZN11QCustomPlot6replotENS_15RefreshPriorityE(ptr noundef align 8 dereferenceable_or_null(513) %39, i32 noundef 2)
  ret void
}