; Function Attrs: mustprogress null_pointer_is_valid sspstrong uwtable
define void @_ZN18Iax2AnalysisDialog11updateGraphEv(ptr noundef readonly align 8 captures(none) dereferenceable_or_null(10448) %0) local_unnamed_addr #0 align 2 {
  %2 = getelementptr inbounds nuw i8, ptr %0, i64 144
  %3 = load ptr, ptr %2, align 8
  %4 = getelementptr inbounds nuw i8, ptr %3, i64 152
  %5 = load ptr, ptr %4, align 8
  %6 = tail call noundef i32 @_ZNK11QCustomPlot10graphCountEv(ptr noundef align 8 dereferenceable_or_null(513) %5)
  %7 = icmp sgt i32 %6, 0
  br i1 %7, label %.lr.ph, label %._crit_edge

._crit_edge:                                      ; preds = %24, %1
  %8 = load ptr, ptr %2, align 8
  %9 = getelementptr inbounds nuw i8, ptr %8, i64 152
  %10 = load ptr, ptr %9, align 8
  tail call void @_ZN11QCustomPlot6replotENS_15RefreshPriorityE(ptr noundef align 8 dereferenceable_or_null(513) %10, i32 noundef 2)
  ret void

.lr.ph:                                           ; preds = %1, %24
  %.05 = phi i32 [ %25, %24 ], [ 0, %1 ]
  %11 = load ptr, ptr %2, align 8
  %12 = getelementptr inbounds nuw i8, ptr %11, i64 152
  %13 = load ptr, ptr %12, align 8
  %14 = tail call noundef ptr @_ZNK11QCustomPlot5graphEi(ptr noundef align 8 dereferenceable_or_null(513) %13, i32 noundef %.05)
  %15 = getelementptr inbounds nuw i8, ptr %14, i64 16
  %16 = load i8, ptr %15, align 8, !range !27, !noundef !28
  %17 = trunc nuw i8 %16 to i1
  br i1 %17, label %18, label %24

18:                                               ; preds = %.lr.ph
  %19 = load ptr, ptr %2, align 8
  %20 = getelementptr inbounds nuw i8, ptr %19, i64 152
  %21 = load ptr, ptr %20, align 8
  %22 = tail call noundef ptr @_ZNK11QCustomPlot5graphEi(ptr noundef align 8 dereferenceable_or_null(513) %21, i32 noundef %.05)
  %23 = icmp ne i32 %.05, 0
  tail call void @_ZNK20QCPAbstractPlottable11rescaleAxesEb(ptr noundef align 8 dereferenceable_or_null(184) %22, i1 noundef zeroext %23)
  br label %24

24:                                               ; preds = %.lr.ph, %18
  %25 = add nuw nsw i32 %.05, 1
  %26 = load ptr, ptr %2, align 8
  %27 = getelementptr inbounds nuw i8, ptr %26, i64 152
  %28 = load ptr, ptr %27, align 8
  %29 = tail call noundef i32 @_ZNK11QCustomPlot10graphCountEv(ptr noundef align 8 dereferenceable_or_null(513) %28)
  %30 = icmp slt i32 %25, %29
  br i1 %30, label %.lr.ph, label %._crit_edge, !llvm.loop !29
}